target datalayout = "e-m:e-p270:32:32-p271:32:32-p272:64:64-i64:64-i128:128-f80:128-n8:16:32:64-S128"
target triple = "x86_64-pc-linux-gnu"

%struct.WebPDecoderOptions = type { i32, i32, i32, i32, i32, i32, i32, i32, i32, i32, i32, i32, i32, i32, [5 x i32] }
%struct.VP8Decoder = type { i32, i32, ptr, %struct.VP8BitReader, i32, %struct.VP8FrameHeader, %struct.VP8PictureHeader, %struct.VP8FilterHeader, %struct.VP8SegmentHeader, %struct.WebPWorker, i32, i32, i32, %struct.VP8ThreadContext, i32, i32, i32, i32, i32, i32, i32, [8 x %struct.VP8BitReader], i32, %struct.VP8Random, [4 x %struct.VP8QuantMatrix], %struct.VP8Proba, i32, i8, ptr, [4 x i8], ptr, ptr, ptr, ptr, ptr, ptr, ptr, i32, i32, ptr, i64, i32, i32, ptr, i32, [4 x [2 x %struct.VP8FInfo]], ptr, ptr, i64, i32, ptr, ptr, ptr, i32 }
%struct.VP8BitReader = type { i64, i32, i32, ptr, ptr, ptr, i32 }
%struct.VP8FrameHeader = type { i8, i8, i8, i32 }
%struct.VP8PictureHeader = type { i16, i16, i8, i8, i8, i8 }
%struct.VP8FilterHeader = type { i32, i32, i32, i32, [4 x i32], [4 x i32] }
%struct.VP8SegmentHeader = type { i32, i32, i32, [4 x i8], [4 x i8] }
%struct.WebPWorker = type { ptr, i32, ptr, ptr, ptr, i32 }
%struct.VP8ThreadContext = type { i32, i32, i32, ptr, ptr, %struct.VP8Io }
%struct.VP8Io = type { i32, i32, i32, i32, i32, ptr, ptr, ptr, i32, i32, ptr, ptr, ptr, ptr, i32, i64, ptr, i32, i32, i32, i32, i32, i32, i32, i32, i32, ptr }
%struct.VP8Random = type { i32, i32, [55 x i32], i32 }
%struct.VP8QuantMatrix = type { [2 x i32], [2 x i32], [2 x i32], i32, i32 }
%struct.VP8Proba = type { [3 x i8], [4 x [8 x %struct.VP8BandProbas]], [4 x [17 x ptr]] }
%struct.VP8BandProbas = type { [3 x [11 x i8]] }
%struct.VP8FInfo = type { i8, i8, i8, i8 }

@kQuantToDitherAmp = internal constant [12 x i8] c"\08\07\06\04\04\02\02\02\01\01\01\01", align 1

; Function Attrs: nounwind uwtable
define hidden void @VP8InitDithering(ptr noundef %0, ptr noundef %1) #0 {
  %3 = alloca ptr, align 8
  %4 = alloca ptr, align 8
  %5 = alloca i32, align 4
  %6 = alloca i32, align 4
  %7 = alloca i32, align 4
  %8 = alloca i32, align 4
  %9 = alloca i32, align 4
  %10 = alloca ptr, align 8
  %11 = alloca i32, align 4
  store ptr %0, ptr %3, align 8
  store ptr %1, ptr %4, align 8
  %12 = load ptr, ptr %3, align 8
  %13 = icmp ne ptr %12, null
  br i1 %13, label %14, label %112

14:                                               ; preds = %2
  %15 = load ptr, ptr %3, align 8
  %16 = getelementptr inbounds %struct.WebPDecoderOptions, ptr %15, i32 0, i32 11
  %17 = load i32, ptr %16, align 4
  store i32 %17, ptr %5, align 4
  store i32 255, ptr %6, align 4
  %18 = load i32, ptr %5, align 4
  %19 = icmp slt i32 %18, 0
  br i1 %19, label %20, label %21

20:                                               ; preds = %14
  br label %31

21:                                               ; preds = %14
  %22 = load i32, ptr %5, align 4
  %23 = icmp sgt i32 %22, 100
  br i1 %23, label %24, label %25

24:                                               ; preds = %21
  br label %29

25:                                               ; preds = %21
  %26 = load i32, ptr %5, align 4
  %27 = mul nsw i32 %26, 255
  %28 = sdiv i32 %27, 100
  br label %29

29:                                               ; preds = %25, %24
  %30 = phi i32 [ 255, %24 ], [ %28, %25 ]
  br label %31

31:                                               ; preds = %29, %20
  %32 = phi i32 [ 0, %20 ], [ %30, %29 ]
  store i32 %32, ptr %7, align 4
  %33 = load i32, ptr %7, align 4
  %34 = icmp sgt i32 %33, 0
  br i1 %34, label %35, label %89

35:                                               ; preds = %31
  store i32 0, ptr %9, align 4
  store i32 0, ptr %8, align 4
  br label %36

36:                                               ; preds = %77, %35
  %37 = load i32, ptr %8, align 4
  %38 = icmp slt i32 %37, 4
  br i1 %38, label %39, label %80

39:                                               ; preds = %36
  %40 = load ptr, ptr %4, align 8
  %41 = getelementptr inbounds %struct.VP8Decoder, ptr %40, i32 0, i32 24
  %42 = load i32, ptr %8, align 4
  %43 = sext i32 %42 to i64
  %44 = getelementptr inbounds [4 x %struct.VP8QuantMatrix], ptr %41, i64 0, i64 %43
  store ptr %44, ptr %10, align 8
  %45 = load ptr, ptr %10, align 8
  %46 = getelementptr inbounds %struct.VP8QuantMatrix, ptr %45, i32 0, i32 3
  %47 = load i32, ptr %46, align 4
  %48 = icmp slt i32 %47, 12
  br i1 %48, label %49, label %71

49:                                               ; preds = %39
  %50 = load ptr, ptr %10, align 8
  %51 = getelementptr inbounds %struct.VP8QuantMatrix, ptr %50, i32 0, i32 3
  %52 = load i32, ptr %51, align 4
  %53 = icmp slt i32 %52, 0
  br i1 %53, label %54, label %55

54:                                               ; preds = %49
  br label %59

55:                                               ; preds = %49
  %56 = load ptr, ptr %10, align 8
  %57 = getelementptr inbounds %struct.VP8QuantMatrix, ptr %56, i32 0, i32 3
  %58 = load i32, ptr %57, align 4
  br label %59

59:                                               ; preds = %55, %54
  %60 = phi i32 [ 0, %54 ], [ %58, %55 ]
  store i32 %60, ptr %11, align 4
  %61 = load i32, ptr %7, align 4
  %62 = load i32, ptr %11, align 4
  %63 = sext i32 %62 to i64
  %64 = getelementptr inbounds [12 x i8], ptr @kQuantToDitherAmp, i64 0, i64 %63
  %65 = load i8, ptr %64, align 1
  %66 = zext i8 %65 to i32
  %67 = mul nsw i32 %61, %66
  %68 = ashr i32 %67, 3
  %69 = load ptr, ptr %10, align 8
  %70 = getelementptr inbounds %struct.VP8QuantMatrix, ptr %69, i32 0, i32 4
  store i32 %68, ptr %70, align 4
  br label %71

71:                                               ; preds = %59, %39
  %72 = load ptr, ptr %10, align 8
  %73 = getelementptr inbounds %struct.VP8QuantMatrix, ptr %72, i32 0, i32 4
  %74 = load i32, ptr %73, align 4
  %75 = load i32, ptr %9, align 4
  %76 = or i32 %75, %74
  store i32 %76, ptr %9, align 4
  br label %77

77:                                               ; preds = %71
  %78 = load i32, ptr %8, align 4
  %79 = add nsw i32 %78, 1
  store i32 %79, ptr %8, align 4
  br label %36, !llvm.loop !4

80:                                               ; preds = %36
  %81 = load i32, ptr %9, align 4
  %82 = icmp ne i32 %81, 0
  br i1 %82, label %83, label %88

83:                                               ; preds = %80
  %84 = load ptr, ptr %4, align 8
  %85 = getelementptr inbounds %struct.VP8Decoder, ptr %84, i32 0, i32 23
  call void @VP8InitRandom(ptr noundef %85, float noundef 1.000000e+00)
  %86 = load ptr, ptr %4, align 8
  %87 = getelementptr inbounds %struct.VP8Decoder, ptr %86, i32 0, i32 22
  store i32 1, ptr %87, align 8
  br label %88

88:                                               ; preds = %83, %80
  br label %89

89:                                               ; preds = %88, %31
  %90 = load ptr, ptr %3, align 8
  %91 = getelementptr inbounds %struct.WebPDecoderOptions, ptr %90, i32 0, i32 13
  %92 = load i32, ptr %91, align 4
  %93 = load ptr, ptr %4, align 8
  %94 = getelementptr inbounds %struct.VP8Decoder, ptr %93, i32 0, i32 53
  store i32 %92, ptr %94, align 8
  %95 = load ptr, ptr %4, align 8
  %96 = getelementptr inbounds %struct.VP8Decoder, ptr %95, i32 0, i32 53
  %97 = load i32, ptr %96, align 8
  %98 = icmp sgt i32 %97, 100
  br i1 %98, label %99, label %102

99:                                               ; preds = %89
  %100 = load ptr, ptr %4, align 8
  %101 = getelementptr inbounds %struct.VP8Decoder, ptr %100, i32 0, i32 53
  store i32 100, ptr %101, align 8
  br label %111

102:                                              ; preds = %89
  %103 = load ptr, ptr %4, align 8
  %104 = getelementptr inbounds %struct.VP8Decoder, ptr %103, i32 0, i32 53
  %105 = load i32, ptr %104, align 8
  %106 = icmp slt i32 %105, 0
  br i1 %106, label %107, label %110

107:                                              ; preds = %102
  %108 = load ptr, ptr %4, align 8
  %109 = getelementptr inbounds %struct.VP8Decoder, ptr %108, i32 0, i32 53
  store i32 0, ptr %109, align 8
  br label %110

110:                                              ; preds = %107, %102
  br label %111

111:                                              ; preds = %110, %99
  br label %112

112:                                              ; preds = %111, %2
  ret void
}